target datalayout = "e-m:e-p270:32:32-p271:32:32-p272:64:64-i64:64-i128:128-f80:128-n8:16:32:64-S128"
target triple = "x86_64-pc-linux-gnu"

; Function Attrs: nounwind uwtable
define internal i32 @verify_input_data(ptr noundef %0, i32 noundef %1, i32 noundef %2, double noundef %3) #0 {
  %5 = alloca i32, align 4
  %6 = alloca ptr, align 8
  %7 = alloca i32, align 4
  %8 = alloca i32, align 4
  %9 = alloca double, align 8
  %10 = alloca i32, align 4
  %11 = alloca i32, align 4
  %12 = alloca i32, align 4
  %13 = alloca i32, align 4
  store ptr %0, ptr %6, align 8, !tbaa !26
  store i32 %1, ptr %7, align 4, !tbaa !8
  store i32 %2, ptr %8, align 4, !tbaa !8
  store double %3, ptr %9, align 8, !tbaa !28
  call void @llvm.lifetime.start.p0(i64 4, ptr %10) #7
  call void @llvm.lifetime.start.p0(i64 4, ptr %11) #7
  call void @llvm.lifetime.start.p0(i64 4, ptr %12) #7
  store i32 0, ptr %10, align 4, !tbaa !8
  br label %14

14:                                               ; preds = %56, %4
  %15 = load i32, ptr %10, align 4, !tbaa !8
  %16 = load i32, ptr %8, align 4, !tbaa !8
  %17 = icmp slt i32 %15, %16
  br i1 %17, label %18, label %59

18:                                               ; preds = %14
  store i32 0, ptr %11, align 4, !tbaa !8
  br label %19

19:                                               ; preds = %52, %18
  %20 = load i32, ptr %11, align 4, !tbaa !8
  %21 = load i32, ptr %7, align 4, !tbaa !8
  %22 = icmp slt i32 %20, %21
  br i1 %22, label %23, label %55

23:                                               ; preds = %19
  store i32 0, ptr %12, align 4, !tbaa !8
  br label %24

24:                                               ; preds = %48, %23
  %25 = load i32, ptr %12, align 4, !tbaa !8
  %26 = icmp slt i32 %25, 3
  br i1 %26, label %27, label %51

27:                                               ; preds = %24
  %28 = load ptr, ptr %6, align 8, !tbaa !26
  %29 = load i32, ptr %10, align 4, !tbaa !8
  %30 = load i32, ptr %7, align 4, !tbaa !8
  %31 = mul nsw i32 %29, %30
  %32 = mul nsw i32 %31, 3
  %33 = load i32, ptr %11, align 4, !tbaa !8
  %34 = mul nsw i32 %33, 3
  %35 = add nsw i32 %32, %34
  %36 = load i32, ptr %12, align 4, !tbaa !8
  %37 = add nsw i32 %35, %36
  %38 = sext i32 %37 to i64
  %39 = getelementptr inbounds double, ptr %28, i64 %38
  %40 = load double, ptr %39, align 8, !tbaa !28
  %41 = load double, ptr %9, align 8, !tbaa !28
  %42 = fdiv double %40, %41
  %43 = fadd double %42, 5.000000e-01
  %44 = call double @llvm.fabs.f64(double %43)
  %45 = fcmp oge double %44, 0x41DFFFFFFFC00000
  br i1 %45, label %46, label %47

46:                                               ; preds = %27
  br label %60

47:                                               ; preds = %27
  br label %48

48:                                               ; preds = %47
  %49 = load i32, ptr %12, align 4, !tbaa !8
  %50 = add nsw i32 %49, 1
  store i32 %50, ptr %12, align 4, !tbaa !8
  br label %24, !llvm.loop !53

51:                                               ; preds = %24
  br label %52

52:                                               ; preds = %51
  %53 = load i32, ptr %11, align 4, !tbaa !8
  %54 = add nsw i32 %53, 1
  store i32 %54, ptr %11, align 4, !tbaa !8
  br label %19, !llvm.loop !54

55:                                               ; preds = %19
  br label %56

56:                                               ; preds = %55
  %57 = load i32, ptr %10, align 4, !tbaa !8
  %58 = add nsw i32 %57, 1
  store i32 %58, ptr %10, align 4, !tbaa !8
  br label %14, !llvm.loop !55

59:                                               ; preds = %14
  store i32 0, ptr %5, align 4
  store i32 1, ptr %13, align 4
  br label %61

60:                                               ; preds = %46
  store i32 1, ptr %5, align 4
  store i32 1, ptr %13, align 4
  br label %61

61:                                               ; preds = %60, %59
  call void @llvm.lifetime.end.p0(i64 4, ptr %12) #7
  call void @llvm.lifetime.end.p0(i64 4, ptr %11) #7
  call void @llvm.lifetime.end.p0(i64 4, ptr %10) #7
  %62 = load i32, ptr %5, align 4
  ret i32 %62
}

; Function Attrs: nounwind uwtable
define internal i32 @quantize(ptr noundef %0, i32 noundef %1, i32 noundef %2, double noundef %3, ptr noundef %4) #0 {
  %6 = alloca ptr, align 8
  %7 = alloca i32, align 4
  %8 = alloca i32, align 4
  %9 = alloca double, align 8
  %10 = alloca ptr, align 8
  %11 = alloca i32, align 4
  %12 = alloca i32, align 4
  %13 = alloca i32, align 4
  store ptr %0, ptr %6, align 8, !tbaa !26
  store i32 %1, ptr %7, align 4, !tbaa !8
  store i32 %2, ptr %8, align 4, !tbaa !8
  store double %3, ptr %9, align 8, !tbaa !28
  store ptr %4, ptr %10, align 8, !tbaa !3
  call void @llvm.lifetime.start.p0(i64 4, ptr %11) #7
  call void @llvm.lifetime.start.p0(i64 4, ptr %12) #7
  call void @llvm.lifetime.start.p0(i64 4, ptr %13) #7
  store i32 0, ptr %11, align 4, !tbaa !8
  br label %14

14:                                               ; preds = %66, %5
  %15 = load i32, ptr %11, align 4, !tbaa !8
  %16 = load i32, ptr %8, align 4, !tbaa !8
  %17 = icmp slt i32 %15, %16
  br i1 %17, label %18, label %69

18:                                               ; preds = %14
  store i32 0, ptr %12, align 4, !tbaa !8
  br label %19

19:                                               ; preds = %62, %18
  %20 = load i32, ptr %12, align 4, !tbaa !8
  %21 = load i32, ptr %7, align 4, !tbaa !8
  %22 = icmp slt i32 %20, %21
  br i1 %22, label %23, label %65

23:                                               ; preds = %19
  store i32 0, ptr %13, align 4, !tbaa !8
  br label %24

24:                                               ; preds = %58, %23
  %25 = load i32, ptr %13, align 4, !tbaa !8
  %26 = icmp slt i32 %25, 3
  br i1 %26, label %27, label %61

27:                                               ; preds = %24
  %28 = load ptr, ptr %6, align 8, !tbaa !26
  %29 = load i32, ptr %11, align 4, !tbaa !8
  %30 = load i32, ptr %7, align 4, !tbaa !8
  %31 = mul nsw i32 %29, %30
  %32 = mul nsw i32 %31, 3
  %33 = load i32, ptr %12, align 4, !tbaa !8
  %34 = mul nsw i32 %33, 3
  %35 = add nsw i32 %32, %34
  %36 = load i32, ptr %13, align 4, !tbaa !8
  %37 = add nsw i32 %35, %36
  %38 = sext i32 %37 to i64
  %39 = getelementptr inbounds double, ptr %28, i64 %38
  %40 = load double, ptr %39, align 8, !tbaa !28
  %41 = load double, ptr %9, align 8, !tbaa !28
  %42 = fdiv double %40, %41
  %43 = fadd double %42, 5.000000e-01
  %44 = call double @llvm.floor.f64(double %43)
  %45 = fptosi double %44 to i32
  %46 = load ptr, ptr %10, align 8, !tbaa !3
  %47 = load i32, ptr %11, align 4, !tbaa !8
  %48 = load i32, ptr %7, align 4, !tbaa !8
  %49 = mul nsw i32 %47, %48
  %50 = mul nsw i32 %49, 3
  %51 = load i32, ptr %12, align 4, !tbaa !8
  %52 = mul nsw i32 %51, 3
  %53 = add nsw i32 %50, %52
  %54 = load i32, ptr %13, align 4, !tbaa !8
  %55 = add nsw i32 %53, %54
  %56 = sext i32 %55 to i64
  %57 = getelementptr inbounds i32, ptr %46, i64 %56
  store i32 %45, ptr %57, align 4, !tbaa !8
  br label %58

58:                                               ; preds = %27
  %59 = load i32, ptr %13, align 4, !tbaa !8
  %60 = add nsw i32 %59, 1
  store i32 %60, ptr %13, align 4, !tbaa !8
  br label %24, !llvm.loop !30

61:                                               ; preds = %24
  br label %62

62:                                               ; preds = %61
  %63 = load i32, ptr %12, align 4, !tbaa !8
  %64 = add nsw i32 %63, 1
  store i32 %64, ptr %12, align 4, !tbaa !8
  br label %19, !llvm.loop !31

65:                                               ; preds = %19
  br label %66

66:                                               ; preds = %65
  %67 = load i32, ptr %11, align 4, !tbaa !8
  %68 = add nsw i32 %67, 1
  store i32 %68, ptr %11, align 4, !tbaa !8
  br label %14, !llvm.loop !32

69:                                               ; preds = %14
  %70 = load ptr, ptr %6, align 8, !tbaa !26
  %71 = load i32, ptr %7, align 4, !tbaa !8
  %72 = load i32, ptr %8, align 4, !tbaa !8
  %73 = load double, ptr %9, align 8, !tbaa !28
  %74 = call i32 @verify_input_data(ptr noundef %70, i32 noundef %71, i32 noundef %72, double noundef %73)
  call void @llvm.lifetime.end.p0(i64 4, ptr %13) #7
  call void @llvm.lifetime.end.p0(i64 4, ptr %12) #7
  call void @llvm.lifetime.end.p0(i64 4, ptr %11) #7
  ret i32 %74
}

; Function Attrs: nounwind uwtable
define ptr @tng_compress_pos(ptr noundef %0, i32 noundef %1, i32 noundef %2, double noundef %3, i32 noundef %4, ptr noundef %5, ptr noundef %6) #0 {
  %8 = alloca ptr, align 8
  %9 = alloca i32, align 4
  %10 = alloca i32, align 4
  %11 = alloca double, align 8
  %12 = alloca i32, align 4
  %13 = alloca ptr, align 8
  %14 = alloca ptr, align 8
  %15 = alloca ptr, align 8
  %16 = alloca ptr, align 8
  %17 = alloca i64, align 8
  %18 = alloca i64, align 8
  store ptr %0, ptr %8, align 8, !tbaa !26
  store i32 %1, ptr %9, align 4, !tbaa !8
  store i32 %2, ptr %10, align 4, !tbaa !8
  store double %3, ptr %11, align 8, !tbaa !28
  store i32 %4, ptr %12, align 4, !tbaa !8
  store ptr %5, ptr %13, align 8, !tbaa !3
  store ptr %6, ptr %14, align 8, !tbaa !3
  call void @llvm.lifetime.start.p0(i64 8, ptr %15) #7
  %19 = load i32, ptr %9, align 4, !tbaa !8
  %20 = load i32, ptr %10, align 4, !tbaa !8
  %21 = mul nsw i32 %19, %20
  %22 = mul nsw i32 %21, 3
  %23 = sext i32 %22 to i64
  %24 = mul i64 %23, 4
  %25 = call noalias ptr @malloc(i64 noundef %24) #8
  store ptr %25, ptr %15, align 8, !tbaa !3
  call void @llvm.lifetime.start.p0(i64 8, ptr %16) #7
  call void @llvm.lifetime.start.p0(i64 8, ptr %17) #7
  call void @llvm.lifetime.start.p0(i64 8, ptr %18) #7
  %26 = load double, ptr %11, align 8, !tbaa !28
  call void @Ptngc_d_to_i32x2(double noundef %26, ptr noundef %17, ptr noundef %18)
  %27 = load ptr, ptr %8, align 8, !tbaa !26
  %28 = load i32, ptr %9, align 4, !tbaa !8
  %29 = load i32, ptr %10, align 4, !tbaa !8
  %30 = load i64, ptr %17, align 8, !tbaa !10
  %31 = load i64, ptr %18, align 8, !tbaa !10
  %32 = call double @Ptngc_i32x2_to_d(i64 noundef %30, i64 noundef %31)
  %33 = load ptr, ptr %15, align 8, !tbaa !3
  %34 = call i32 @quantize(ptr noundef %27, i32 noundef %28, i32 noundef %29, double noundef %32, ptr noundef %33)
  %35 = icmp ne i32 %34, 0
  br i1 %35, label %36, label %37

36:                                               ; preds = %7
  store ptr null, ptr %16, align 8, !tbaa !12
  br label %47

37:                                               ; preds = %7
  %38 = load ptr, ptr %15, align 8, !tbaa !3
  %39 = load i32, ptr %9, align 4, !tbaa !8
  %40 = load i32, ptr %10, align 4, !tbaa !8
  %41 = load i64, ptr %17, align 8, !tbaa !10
  %42 = load i64, ptr %18, align 8, !tbaa !10
  %43 = load i32, ptr %12, align 4, !tbaa !8
  %44 = load ptr, ptr %13, align 8, !tbaa !3
  %45 = load ptr, ptr %14, align 8, !tbaa !3
  %46 = call ptr @tng_compress_pos_int(ptr noundef %38, i32 noundef %39, i32 noundef %40, i64 noundef %41, i64 noundef %42, i32 noundef %43, ptr noundef %44, ptr noundef %45)
  store ptr %46, ptr %16, align 8, !tbaa !12
  br label %47

47:                                               ; preds = %37, %36
  %48 = load ptr, ptr %15, align 8, !tbaa !3
  call void @free(ptr noundef %48) #7
  %49 = load ptr, ptr %16, align 8, !tbaa !12
  call void @llvm.lifetime.end.p0(i64 8, ptr %18) #7
  call void @llvm.lifetime.end.p0(i64 8, ptr %17) #7
  call void @llvm.lifetime.end.p0(i64 8, ptr %16) #7
  call void @llvm.lifetime.end.p0(i64 8, ptr %15) #7
  ret ptr %49
}